; ModuleID = '35/365.c'
source_filename = "35/365.c"
target datalayout = "e-m:e-p270:32:32-p271:32:32-p272:64:64-i64:64-f80:128-n8:16:32:64-S128"
target triple = "x86_64-pc-linux-gnu"

@.str = private unnamed_addr constant [6 x i8] c"%d,%d\00", align 1
@.str.1 = private unnamed_addr constant [3 x i8] c"%d\00", align 1
@.str.2 = private unnamed_addr constant [6 x i8] c"%d+%d\00", align 1
@.str.3 = private unnamed_addr constant [3 x i8] c"No\00", align 1

; Function Attrs: noinline nounwind uwtable
define dso_local i32 @main() #0 {
  %1 = alloca i32, align 4
  %2 = alloca i32, align 4
  %3 = alloca i32, align 4
  %4 = alloca i32, align 4
  %5 = alloca i32, align 4
  %6 = alloca i32, align 4
  %7 = alloca i32, align 4
  %8 = alloca i32, align 4
  %9 = alloca i32, align 4
  %10 = alloca i32, align 4
  %11 = alloca i8*, align 8
  %12 = alloca i64, align 8
  %13 = alloca i64, align 8
  store i32 0, i32* %1, align 4
  store i32 0, i32* %9, align 4
  store i32 0, i32* %10, align 4
  %14 = call i32 (i8*, ...) @__isoc99_scanf(i8* getelementptr inbounds ([6 x i8], [6 x i8]* @.str, i64 0, i64 0), i32* %2, i32* %3)
  %15 = load i32, i32* %2, align 4
  %16 = zext i32 %15 to i64
  %17 = load i32, i32* %3, align 4
  %18 = zext i32 %17 to i64
  %19 = call i8* @llvm.stacksave()
  store i8* %19, i8** %11, align 8
  %20 = mul nuw i64 %16, %18
  %21 = alloca i32, i64 %20, align 16
  store i64 %16, i64* %12, align 8
  store i64 %18, i64* %13, align 8
  store i32 0, i32* %4, align 4
  br label %22

22:                                               ; preds = %44, %0
  %23 = load i32, i32* %4, align 4
  %24 = load i32, i32* %2, align 4
  %25 = icmp slt i32 %23, %24
  br i1 %25, label %26, label %47

26:                                               ; preds = %22
  store i32 0, i32* %5, align 4
  br label %27

27:                                               ; preds = %40, %26
  %28 = load i32, i32* %5, align 4
  %29 = load i32, i32* %3, align 4
  %30 = icmp slt i32 %28, %29
  br i1 %30, label %31, label %43

31:                                               ; preds = %27
  %32 = load i32, i32* %4, align 4
  %33 = sext i32 %32 to i64
  %34 = mul nsw i64 %33, %18
  %35 = getelementptr inbounds i32, i32* %21, i64 %34
  %36 = load i32, i32* %5, align 4
  %37 = sext i32 %36 to i64
  %38 = getelementptr inbounds i32, i32* %35, i64 %37
  %39 = call i32 (i8*, ...) @__isoc99_scanf(i8* getelementptr inbounds ([3 x i8], [3 x i8]* @.str.1, i64 0, i64 0), i32* %38)
  br label %40

40:                                               ; preds = %31
  %41 = load i32, i32* %5, align 4
  %42 = add nsw i32 %41, 1
  store i32 %42, i32* %5, align 4
  br label %27

43:                                               ; preds = %27
  br label %44

44:                                               ; preds = %43
  %45 = load i32, i32* %4, align 4
  %46 = add nsw i32 %45, 1
  store i32 %46, i32* %4, align 4
  br label %22

47:                                               ; preds = %22
  store i32 0, i32* %4, align 4
  br label %48

48:                                               ; preds = %121, %47
  %49 = load i32, i32* %4, align 4
  %50 = load i32, i32* %2, align 4
  %51 = icmp slt i32 %49, %50
  br i1 %51, label %52, label %124

52:                                               ; preds = %48
  %53 = load i32, i32* %4, align 4
  store i32 %53, i32* %6, align 4
  store i32 0, i32* %7, align 4
  store i32 0, i32* %5, align 4
  br label %54

54:                                               ; preds = %78, %52
  %55 = load i32, i32* %5, align 4
  %56 = load i32, i32* %3, align 4
  %57 = icmp slt i32 %55, %56
  br i1 %57, label %58, label %81

58:                                               ; preds = %54
  %59 = load i32, i32* %4, align 4
  %60 = sext i32 %59 to i64
  %61 = mul nsw i64 %60, %18
  %62 = getelementptr inbounds i32, i32* %21, i64 %61
  %63 = load i32, i32* %5, align 4
  %64 = sext i32 %63 to i64
  %65 = getelementptr inbounds i32, i32* %62, i64 %64
  %66 = load i32, i32* %65, align 4
  %67 = load i32, i32* %4, align 4
  %68 = sext i32 %67 to i64
  %69 = mul nsw i64 %68, %18
  %70 = getelementptr inbounds i32, i32* %21, i64 %69
  %71 = getelementptr inbounds i32, i32* %70, i64 0
  %72 = load i32, i32* %71, align 4
  %73 = icmp sgt i32 %66, %72
  br i1 %73, label %74, label %77

74:                                               ; preds = %58
  %75 = load i32, i32* %4, align 4
  store i32 %75, i32* %6, align 4
  %76 = load i32, i32* %5, align 4
  store i32 %76, i32* %7, align 4
  br label %77

77:                                               ; preds = %74, %58
  br label %78

78:                                               ; preds = %77
  %79 = load i32, i32* %5, align 4
  %80 = add nsw i32 %79, 1
  store i32 %80, i32* %5, align 4
  br label %54

81:                                               ; preds = %54
  store i32 0, i32* %8, align 4
  br label %82

82:                                               ; preds = %108, %81
  %83 = load i32, i32* %8, align 4
  %84 = load i32, i32* %2, align 4
  %85 = icmp slt i32 %83, %84
  br i1 %85, label %86, label %111

86:                                               ; preds = %82
  %87 = load i32, i32* %6, align 4
  %88 = sext i32 %87 to i64
  %89 = mul nsw i64 %88, %18
  %90 = getelementptr inbounds i32, i32* %21, i64 %89
  %91 = load i32, i32* %7, align 4
  %92 = sext i32 %91 to i64
  %93 = getelementptr inbounds i32, i32* %90, i64 %92
  %94 = load i32, i32* %93, align 4
  %95 = load i32, i32* %8, align 4
  %96 = sext i32 %95 to i64
  %97 = mul nsw i64 %96, %18
  %98 = getelementptr inbounds i32, i32* %21, i64 %97
  %99 = load i32, i32* %7, align 4
  %100 = sext i32 %99 to i64
  %101 = getelementptr inbounds i32, i32* %98, i64 %100
  %102 = load i32, i32* %101, align 4
  %103 = icmp sgt i32 %94, %102
  br i1 %103, label %104, label %107

104:                                              ; preds = %86
  %105 = load i32, i32* %9, align 4
  %106 = add nsw i32 %105, 1
  store i32 %106, i32* %9, align 4
  br label %107

107:                                              ; preds = %104, %86
  br label %108

108:                                              ; preds = %107
  %109 = load i32, i32* %8, align 4
  %110 = add nsw i32 %109, 1
  store i32 %110, i32* %8, align 4
  br label %82

111:                                              ; preds = %82
  %112 = load i32, i32* %9, align 4
  %113 = icmp eq i32 %112, 0
  br i1 %113, label %114, label %120

114:                                              ; preds = %111
  %115 = load i32, i32* %6, align 4
  %116 = load i32, i32* %7, align 4
  %117 = call i32 (i8*, ...) @printf(i8* getelementptr inbounds ([6 x i8], [6 x i8]* @.str.2, i64 0, i64 0), i32 %115, i32 %116)
  %118 = load i32, i32* %10, align 4
  %119 = add nsw i32 %118, 1
  store i32 %119, i32* %10, align 4
  br label %120

120:                                              ; preds = %114, %111
  br label %121

121:                                              ; preds = %120
  %122 = load i32, i32* %4, align 4
  %123 = add nsw i32 %122, 1
  store i32 %123, i32* %4, align 4
  br label %48

124:                                              ; preds = %48
  %125 = load i32, i32* %10, align 4
  %126 = icmp eq i32 %125, 0
  br i1 %126, label %127, label %129

127:                                              ; preds = %124
  %128 = call i32 (i8*, ...) @printf(i8* getelementptr inbounds ([3 x i8], [3 x i8]* @.str.3, i64 0, i64 0))
  br label %129

129:                                              ; preds = %127, %124
  store i32 0, i32* %1, align 4
  %130 = load i8*, i8** %11, align 8
  call void @llvm.stackrestore(i8* %130)
  %131 = load i32, i32* %1, align 4
  ret i32 %131
}

declare dso_local i32 @__isoc99_scanf(i8*, ...) #1

; Function Attrs: nounwind
declare i8* @llvm.stacksave() #2

declare dso_local i32 @printf(i8*, ...) #1

; Function Attrs: nounwind
declare void @llvm.stackrestore(i8*) #2


!llvm.module.flags = !{!0}
!llvm.ident = !{!1}

!0 = !{i32 1, !"wchar_size", i32 4}
!1 = !{!"clang version 10.0.0-4ubuntu1 "}
